; Function Attrs: mustprogress uwtable
define void @_ZN3g2o9ScopeTimeC2EPKc(ptr noundef nonnull align 8 dereferenceable(40) %0, ptr noundef %1) unnamed_addr #3 align 2 personality ptr @__gxx_personality_v0 {
  %3 = alloca %"class.std::allocator", align 1
  call void @_ZNSaIcEC1Ev(ptr noundef nonnull align 1 dereferenceable(1) %3) #10
  %4 = invoke noundef ptr @_ZNSt7__cxx1112basic_stringIcSt11char_traitsIcESaIcEE13_M_local_dataEv(ptr noundef nonnull align 8 dereferenceable(32) %0)
          to label %.noexc unwind label %18

.noexc:                                           ; preds = %2
  invoke void @_ZNSt7__cxx1112basic_stringIcSt11char_traitsIcESaIcEE12_Alloc_hiderC1EPcRKS3_(ptr noundef nonnull align 8 dereferenceable(8) %0, ptr noundef %4, ptr noundef nonnull align 1 dereferenceable(1) %3)
          to label %.noexc5 unwind label %18

.noexc5:                                          ; preds = %.noexc
  %5 = icmp eq ptr %1, null
  br i1 %5, label %6, label %10

6:                                                ; preds = %.noexc5
  invoke void @_ZSt19__throw_logic_errorPKc(ptr noundef nonnull @.str) #11
          to label %7 unwind label %8

7:                                                ; preds = %6
  unreachable

8:                                                ; preds = %10, %6
  %9 = landingpad { ptr, i32 }
          cleanup
  call void @_ZNSaIcED2Ev(ptr noundef nonnull align 1 dereferenceable(1) %0) #10
  br label %.body

10:                                               ; preds = %.noexc5
  %11 = call noundef i64 @strlen(ptr noundef nonnull dereferenceable(1) %1) #10
  %12 = getelementptr inbounds i8, ptr %1, i64 %11
  invoke void @_ZNSt7__cxx1112basic_stringIcSt11char_traitsIcESaIcEE12_M_constructIPKcEEvT_S8_St20forward_iterator_tag(ptr noundef nonnull align 8 dereferenceable(32) %0, ptr noundef nonnull %1, ptr noundef nonnull %12)
          to label %13 unwind label %8

13:                                               ; preds = %10
  call void @_ZNSaIcED1Ev(ptr noundef nonnull align 1 dereferenceable(1) %3) #10
  %14 = call i64 @_ZNSt6chrono3_V212steady_clock3nowEv() #10
  %15 = sitofp i64 %14 to double
  %16 = fdiv double %15, 1.000000e+09
  %17 = getelementptr inbounds nuw i8, ptr %0, i64 32
  store double %16, ptr %17, align 8
  ret void

18:                                               ; preds = %.noexc, %2
  %19 = landingpad { ptr, i32 }
          cleanup
  br label %.body

.body:                                            ; preds = %8, %18
  %eh.lpad-body = phi { ptr, i32 } [ %19, %18 ], [ %9, %8 ]
  call void @_ZNSaIcED1Ev(ptr noundef nonnull align 1 dereferenceable(1) %3) #10
  resume { ptr, i32 } %eh.lpad-body
}